; ModuleID = 'source-C-CXX/48/861.cpp'
source_filename = "source-C-CXX/48/861.cpp"
target datalayout = "e-m:e-p270:32:32-p271:32:32-p272:64:64-i64:64-f80:128-n8:16:32:64-S128"
target triple = "x86_64-pc-linux-gnu"

%"class.std::ios_base::Init" = type { i8 }
%"class.std::basic_istream" = type { i32 (...)**, i64, %"class.std::basic_ios" }
%"class.std::basic_ios" = type { %"class.std::ios_base", %"class.std::basic_ostream"*, i8, i8, %"class.std::basic_streambuf"*, %"class.std::ctype"*, %"class.std::num_put"*, %"class.std::num_get"* }
%"class.std::ios_base" = type { i32 (...)**, i64, i64, i32, i32, i32, %"struct.std::ios_base::_Callback_list"*, %"struct.std::ios_base::_Words", [8 x %"struct.std::ios_base::_Words"], i32, %"struct.std::ios_base::_Words"*, %"class.std::locale" }
%"struct.std::ios_base::_Callback_list" = type { %"struct.std::ios_base::_Callback_list"*, void (i32, %"class.std::ios_base"*, i32)*, i32, i32 }
%"struct.std::ios_base::_Words" = type { i8*, i64 }
%"class.std::locale" = type { %"class.std::locale::_Impl"* }
%"class.std::locale::_Impl" = type { i32, %"class.std::locale::facet"**, i64, %"class.std::locale::facet"**, i8** }
%"class.std::locale::facet" = type <{ i32 (...)**, i32, [4 x i8] }>
%"class.std::basic_ostream" = type { i32 (...)**, %"class.std::basic_ios" }
%"class.std::basic_streambuf" = type { i32 (...)**, i8*, i8*, i8*, i8*, i8*, i8*, %"class.std::locale" }
%"class.std::ctype" = type <{ %"class.std::locale::facet.base", [4 x i8], %struct.__locale_struct*, i8, [7 x i8], i32*, i32*, i16*, i8, [256 x i8], [256 x i8], i8, [6 x i8] }>
%"class.std::locale::facet.base" = type <{ i32 (...)**, i32 }>
%struct.__locale_struct = type { [13 x %struct.__locale_data*], i16*, i32*, i32*, [13 x i8*] }
%struct.__locale_data = type opaque
%"class.std::num_put" = type { %"class.std::locale::facet.base", [4 x i8] }
%"class.std::num_get" = type { %"class.std::locale::facet.base", [4 x i8] }

@_ZStL8__ioinit = internal global %"class.std::ios_base::Init" zeroinitializer, align 1
@__dso_handle = external hidden global i8
@_ZSt3cin = external global %"class.std::basic_istream", align 8
@_ZSt4cout = external global %"class.std::basic_ostream", align 8
@llvm.global_ctors = appending global [1 x { i32, void ()*, i8* }] [{ i32, void ()*, i8* } { i32 65535, void ()* @_GLOBAL__sub_I_861.cpp, i8* null }]

declare void @_ZNSt8ios_base4InitC1Ev(%"class.std::ios_base::Init"* nonnull align 1 dereferenceable(1)) unnamed_addr #0

; Function Attrs: nounwind
declare void @_ZNSt8ios_base4InitD1Ev(%"class.std::ios_base::Init"* nonnull align 1 dereferenceable(1)) unnamed_addr #1

; Function Attrs: nofree nounwind
declare i32 @__cxa_atexit(void (i8*)*, i8*, i8*) local_unnamed_addr #2

; Function Attrs: mustprogress norecurse sspstrong uwtable
define dso_local i32 @main() local_unnamed_addr #3 {
  %1 = alloca i8, align 1
  %2 = alloca i8, align 1
  %3 = alloca [500 x i8], align 16
  %4 = getelementptr inbounds [500 x i8], [500 x i8]* %3, i64 0, i64 0
  call void @llvm.lifetime.start.p0i8(i64 500, i8* nonnull %4) #7
  call void @_ZSt17__istream_extractRSiPcl(%"class.std::basic_istream"* nonnull align 8 dereferenceable(16) @_ZSt3cin, i8* nonnull %4, i64 500)
  %5 = call i64 @strlen(i8* noundef nonnull %4) #8
  %6 = trunc i64 %5 to i32
  %7 = icmp slt i32 %6, 2
  br i1 %7, label %65, label %8

8:                                                ; preds = %0
  %9 = add i64 %5, 1
  %10 = and i64 %9, 4294967295
  br label %11

11:                                               ; preds = %8, %61
  %12 = phi i64 [ 2, %8 ], [ %63, %61 ]
  %13 = phi i32 [ %6, %8 ], [ %15, %61 ]
  %14 = phi i32 [ 0, %8 ], [ %62, %61 ]
  %15 = add i32 %13, -1
  %16 = trunc i64 %12 to i32
  %17 = icmp slt i32 %6, %16
  br i1 %17, label %61, label %18

18:                                               ; preds = %11
  %19 = zext i32 %15 to i64
  br label %20

20:                                               ; preds = %18, %57
  %21 = phi i64 [ 0, %18 ], [ %59, %57 ]
  %22 = phi i32 [ %14, %18 ], [ %58, %57 ]
  %23 = add nuw nsw i64 %21, %12
  %24 = trunc i64 %23 to i32
  br label %25

25:                                               ; preds = %25, %20
  %26 = phi i64 [ %39, %25 ], [ 0, %20 ]
  %27 = phi i32 [ %40, %25 ], [ 0, %20 ]
  %28 = add nuw nsw i64 %26, %21
  %29 = getelementptr inbounds [500 x i8], [500 x i8]* %3, i64 0, i64 %28
  %30 = load i8, i8* %29, align 1, !tbaa !5
  %31 = xor i32 %27, -1
  %32 = add nsw i32 %24, %31
  %33 = sext i32 %32 to i64
  %34 = getelementptr inbounds [500 x i8], [500 x i8]* %3, i64 0, i64 %33
  %35 = load i8, i8* %34, align 1, !tbaa !5
  %36 = icmp eq i8 %30, %35
  %37 = icmp ult i64 %26, %12
  %38 = select i1 %36, i1 %37, i1 false
  %39 = add nuw nsw i64 %26, 1
  %40 = add nuw nsw i32 %27, 1
  br i1 %38, label %25, label %41, !llvm.loop !8

41:                                               ; preds = %25
  %42 = and i64 %26, 4294967295
  %43 = icmp eq i64 %42, %12
  br i1 %43, label %44, label %57

44:                                               ; preds = %41
  %45 = icmp eq i32 %22, 0
  br i1 %45, label %48, label %46

46:                                               ; preds = %44
  call void @llvm.lifetime.start.p0i8(i64 1, i8* nonnull %2)
  store i8 10, i8* %2, align 1, !tbaa !5
  %47 = call nonnull align 8 dereferenceable(8) %"class.std::basic_ostream"* @_ZSt16__ostream_insertIcSt11char_traitsIcEERSt13basic_ostreamIT_T0_ES6_PKS3_l(%"class.std::basic_ostream"* nonnull align 8 dereferenceable(8) @_ZSt4cout, i8* nonnull %2, i64 1)
  call void @llvm.lifetime.end.p0i8(i64 1, i8* nonnull %2)
  br label %48

48:                                               ; preds = %44, %46
  br label %49

49:                                               ; preds = %48, %49
  %50 = phi i64 [ %55, %49 ], [ 0, %48 ]
  %51 = add nuw nsw i64 %50, %21
  %52 = getelementptr inbounds [500 x i8], [500 x i8]* %3, i64 0, i64 %51
  %53 = load i8, i8* %52, align 1, !tbaa !5
  call void @llvm.lifetime.start.p0i8(i64 1, i8* nonnull %1)
  store i8 %53, i8* %1, align 1, !tbaa !5
  %54 = call nonnull align 8 dereferenceable(8) %"class.std::basic_ostream"* @_ZSt16__ostream_insertIcSt11char_traitsIcEERSt13basic_ostreamIT_T0_ES6_PKS3_l(%"class.std::basic_ostream"* nonnull align 8 dereferenceable(8) @_ZSt4cout, i8* nonnull %1, i64 1)
  call void @llvm.lifetime.end.p0i8(i64 1, i8* nonnull %1)
  %55 = add nuw nsw i64 %50, 1
  %56 = icmp eq i64 %55, %12
  br i1 %56, label %57, label %49, !llvm.loop !10

57:                                               ; preds = %49, %41
  %58 = phi i32 [ %22, %41 ], [ 1, %49 ]
  %59 = add nuw nsw i64 %21, 1
  %60 = icmp eq i64 %59, %19
  br i1 %60, label %61, label %20, !llvm.loop !11

61:                                               ; preds = %57, %11
  %62 = phi i32 [ %14, %11 ], [ %58, %57 ]
  %63 = add nuw nsw i64 %12, 1
  %64 = icmp eq i64 %63, %10
  br i1 %64, label %65, label %11, !llvm.loop !12

65:                                               ; preds = %61, %0
  call void @llvm.lifetime.end.p0i8(i64 500, i8* nonnull %4) #7
  ret i32 0
}

; Function Attrs: argmemonly mustprogress nofree nosync nounwind willreturn
declare void @llvm.lifetime.start.p0i8(i64 immarg, i8* nocapture) #4

; Function Attrs: argmemonly mustprogress nofree nounwind readonly willreturn
declare i64 @strlen(i8* nocapture) local_unnamed_addr #5

; Function Attrs: argmemonly mustprogress nofree nosync nounwind willreturn
declare void @llvm.lifetime.end.p0i8(i64 immarg, i8* nocapture) #4

declare void @_ZSt17__istream_extractRSiPcl(%"class.std::basic_istream"* nonnull align 8 dereferenceable(16), i8*, i64) local_unnamed_addr #0

declare nonnull align 8 dereferenceable(8) %"class.std::basic_ostream"* @_ZSt16__ostream_insertIcSt11char_traitsIcEERSt13basic_ostreamIT_T0_ES6_PKS3_l(%"class.std::basic_ostream"* nonnull align 8 dereferenceable(8), i8*, i64) local_unnamed_addr #0

; Function Attrs: sspstrong uwtable
define internal void @_GLOBAL__sub_I_861.cpp() #6 section ".text.startup" {
  tail call void @_ZNSt8ios_base4InitC1Ev(%"class.std::ios_base::Init"* nonnull align 1 dereferenceable(1) @_ZStL8__ioinit)
  %1 = tail call i32 @__cxa_atexit(void (i8*)* bitcast (void (%"class.std::ios_base::Init"*)* @_ZNSt8ios_base4InitD1Ev to void (i8*)*), i8* getelementptr inbounds (%"class.std::ios_base::Init", %"class.std::ios_base::Init"* @_ZStL8__ioinit, i64 0, i32 0), i8* nonnull @__dso_handle) #7
  ret void
}


!llvm.module.flags = !{!0, !1, !2, !3}
!llvm.ident = !{!4}

!0 = !{i32 1, !"wchar_size", i32 4}
!1 = !{i32 7, !"PIC Level", i32 2}
!2 = !{i32 7, !"PIE Level", i32 2}
!3 = !{i32 7, !"uwtable", i32 1}
!4 = !{!"clang version 13.0.0"}
!5 = !{!6, !6, i64 0}
!6 = !{!"omnipotent char", !7, i64 0}
!7 = !{!"Simple C++ TBAA"}
!8 = distinct !{!8, !9}
!9 = !{!"llvm.loop.mustprogress"}
!10 = distinct !{!10, !9}
!11 = distinct !{!11, !9}
!12 = distinct !{!12, !9}
